target datalayout = "e-m:e-p270:32:32-p271:32:32-p272:64:64-i64:64-i128:128-f80:128-n8:16:32:64-S128"
target triple = "x86_64-pc-linux-gnu"

%struct.lua_State = type { %struct.GCRef, i8, i8, i8, i8, %struct.MRef, %struct.GCRef, ptr, ptr, %struct.MRef, %struct.MRef, %struct.GCRef, %struct.GCRef, ptr, i32 }
%struct.MRef = type { i64 }
%struct.GCRef = type { i64 }
%union.TValue = type { i64 }
%struct.GG_State = type { %struct.lua_State, %struct.global_State, %struct.jit_State, [64 x i16], [243 x ptr], [57 x i32] }
%struct.global_State = type { ptr, ptr, %struct.GCState, %struct.GCstr, i8, i8, i8, i8, %struct.StrInternState, i32, %struct.GCRef, %struct.SBuf, %union.TValue, %union.TValue, %struct.Node, %union.TValue, %struct.GCupval, i32, i32, ptr, ptr, ptr, i32, i32, %struct.GCRef, %struct.MRef, %struct.MRef, %struct.PRNGState, [39 x %struct.GCRef] }
%struct.GCState = type { i64, i64, i8, i8, i8, i8, i32, %struct.GCRef, %struct.MRef, %struct.GCRef, %struct.GCRef, %struct.GCRef, %struct.GCRef, i64, i64, i32, i32, %struct.MRef }
%struct.GCstr = type { %struct.GCRef, i8, i8, i8, i8, i32, i32, i32 }
%struct.StrInternState = type { ptr, i32, i32, i32, i8, i8, i8, i8, i64 }
%struct.SBuf = type { ptr, ptr, ptr, %struct.MRef }
%struct.Node = type { %union.TValue, %union.TValue, %struct.MRef }
%struct.GCupval = type { %struct.GCRef, i8, i8, i8, i8, %union.anon, %struct.MRef, i32 }
%union.anon = type { %struct.anon.1 }
%struct.anon.1 = type { %struct.GCRef, %struct.GCRef }
%struct.PRNGState = type { [4 x i64] }
%struct.jit_State = type { %struct.GCtrace, ptr, ptr, ptr, ptr, ptr, ptr, i32, i32, i32, i8, i8, %struct.IRType1, i8, %struct.FoldState, ptr, i32, i32, i32, i32, i32, i32, i32, [1 x i32], [5 x %union.TValue], [3 x %union.TValue], ptr, i32, i32, i32, i32, ptr, ptr, i32, i32, i8, ptr, i32, i32, i16, [101 x i16], [258 x i32], [15 x i32], [16 x ptr], [64 x %struct.HotPenalty], i32, [16 x %struct.BPropEntry], i32, %struct.ScEvEntry, ptr, i32, i32, i32, ptr, i32, i32, ptr, ptr, ptr, i64, i64, %union.TValue, ptr, i32, i32 }
%struct.GCtrace = type { %struct.GCRef, i8, i8, i16, i32, i32, %struct.GCRef, ptr, i32, i32, ptr, ptr, %struct.GCRef, %struct.MRef, i32, i32, ptr, i32, i16, i16, i16, i16, i16, i16, i16, i8, i8, i8, i8 }
%struct.IRType1 = type { i8 }
%struct.FoldState = type { %union.IRIns, [2 x %union.IRIns], [2 x %union.IRIns] }
%union.IRIns = type { %struct.GCRef }
%struct.HotPenalty = type { %struct.MRef, i16, i16 }
%struct.BPropEntry = type { i16, i16, i32 }
%struct.ScEvEntry = type { %struct.MRef, i16, i16, i16, i16, %struct.IRType1, i8 }
%struct.anon.3 = type { i32, %struct.IRType1, i8, i8, i8 }
%struct.anon.2 = type { i16, i16, i16, i16 }

; Function Attrs: alwaysinline nounwind uwtable
define internal void @setintV(ptr noundef %0, i32 noundef %1) #5 {
  %3 = alloca ptr, align 8
  %4 = alloca i32, align 4
  store ptr %0, ptr %3, align 8, !tbaa !56
  store i32 %1, ptr %4, align 4, !tbaa !35
  %5 = load i32, ptr %4, align 4, !tbaa !35
  %6 = sitofp i32 %5 to double
  %7 = load ptr, ptr %3, align 8, !tbaa !56
  store double %6, ptr %7, align 8, !tbaa !37
  ret void
}

; Function Attrs: nounwind uwtable
define internal ptr @jit_checktrace(ptr noundef %0) #0 {
  %2 = alloca ptr, align 8
  %3 = alloca ptr, align 8
  %4 = alloca i32, align 4
  %5 = alloca ptr, align 8
  %6 = alloca i32, align 4
  store ptr %0, ptr %3, align 8, !tbaa !4
  call void @llvm.lifetime.start.p0(i64 4, ptr %4) #9
  %7 = load ptr, ptr %3, align 8, !tbaa !4
  %8 = call i32 @lj_lib_checkint(ptr noundef %7, i32 noundef 1)
  store i32 %8, ptr %4, align 4, !tbaa !35
  call void @llvm.lifetime.start.p0(i64 8, ptr %5) #9
  %9 = load ptr, ptr %3, align 8, !tbaa !4
  %10 = getelementptr inbounds nuw %struct.lua_State, ptr %9, i32 0, i32 5
  %11 = getelementptr inbounds nuw %struct.MRef, ptr %10, i32 0, i32 0
  %12 = load i64, ptr %11, align 8, !tbaa !17
  %13 = inttoptr i64 %12 to ptr
  %14 = getelementptr inbounds i8, ptr %13, i64 -96
  %15 = getelementptr inbounds nuw %struct.GG_State, ptr %14, i32 0, i32 2
  store ptr %15, ptr %5, align 8, !tbaa !18
  %16 = load i32, ptr %4, align 4, !tbaa !35
  %17 = icmp ugt i32 %16, 0
  br i1 %17, label %18, label %34

18:                                               ; preds = %1
  %19 = load i32, ptr %4, align 4, !tbaa !35
  %20 = load ptr, ptr %5, align 8, !tbaa !18
  %21 = getelementptr inbounds nuw %struct.jit_State, ptr %20, i32 0, i32 38
  %22 = load i32, ptr %21, align 4, !tbaa !114
  %23 = icmp ult i32 %19, %22
  br i1 %23, label %24, label %34

24:                                               ; preds = %18
  %25 = load ptr, ptr %5, align 8, !tbaa !18
  %26 = getelementptr inbounds nuw %struct.jit_State, ptr %25, i32 0, i32 36
  %27 = load ptr, ptr %26, align 8, !tbaa !115
  %28 = load i32, ptr %4, align 4, !tbaa !35
  %29 = zext i32 %28 to i64
  %30 = getelementptr inbounds nuw %struct.GCRef, ptr %27, i64 %29
  %31 = getelementptr inbounds nuw %struct.GCRef, ptr %30, i32 0, i32 0
  %32 = load i64, ptr %31, align 8, !tbaa !84
  %33 = inttoptr i64 %32 to ptr
  store ptr %33, ptr %2, align 8
  store i32 1, ptr %6, align 4
  br label %35

34:                                               ; preds = %18, %1
  store ptr null, ptr %2, align 8
  store i32 1, ptr %6, align 4
  br label %35

35:                                               ; preds = %34, %24
  call void @llvm.lifetime.end.p0(i64 8, ptr %5) #9
  call void @llvm.lifetime.end.p0(i64 4, ptr %4) #9
  %36 = load ptr, ptr %2, align 8
  ret ptr %36
}

; Function Attrs: nounwind uwtable
define internal i32 @lj_cf_jit_util_tracek(ptr noundef %0) #0 {
  %2 = alloca i32, align 4
  %3 = alloca ptr, align 8
  %4 = alloca ptr, align 8
  %5 = alloca i32, align 4
  %6 = alloca ptr, align 8
  %7 = alloca i32, align 4
  %8 = alloca i64, align 8
  %9 = alloca i32, align 4
  store ptr %0, ptr %3, align 8, !tbaa !4
  call void @llvm.lifetime.start.p0(i64 8, ptr %4) #9
  %10 = load ptr, ptr %3, align 8, !tbaa !4
  %11 = call ptr @jit_checktrace(ptr noundef %10)
  store ptr %11, ptr %4, align 8, !tbaa !85
  call void @llvm.lifetime.start.p0(i64 4, ptr %5) #9
  %12 = load ptr, ptr %3, align 8, !tbaa !4
  %13 = call i32 @lj_lib_checkint(ptr noundef %12, i32 noundef 2)
  %14 = add i32 %13, 32768
  store i32 %14, ptr %5, align 4, !tbaa !35
  %15 = load ptr, ptr %4, align 8, !tbaa !85
  %16 = icmp ne ptr %15, null
  br i1 %16, label %17, label %122

17:                                               ; preds = %1
  %18 = load i32, ptr %5, align 4, !tbaa !35
  %19 = load ptr, ptr %4, align 8, !tbaa !85
  %20 = getelementptr inbounds nuw %struct.GCtrace, ptr %19, i32 0, i32 8
  %21 = load i32, ptr %20, align 8, !tbaa !87
  %22 = icmp uge i32 %18, %21
  br i1 %22, label %23, label %122

23:                                               ; preds = %17
  %24 = load i32, ptr %5, align 4, !tbaa !35
  %25 = icmp ult i32 %24, 32768
  br i1 %25, label %26, label %122

26:                                               ; preds = %23
  call void @llvm.lifetime.start.p0(i64 8, ptr %6) #9
  %27 = load ptr, ptr %4, align 8, !tbaa !85
  %28 = getelementptr inbounds nuw %struct.GCtrace, ptr %27, i32 0, i32 7
  %29 = load ptr, ptr %28, align 8, !tbaa !91
  %30 = load i32, ptr %5, align 4, !tbaa !35
  %31 = zext i32 %30 to i64
  %32 = getelementptr inbounds nuw %union.IRIns, ptr %29, i64 %31
  store ptr %32, ptr %6, align 8, !tbaa !92
  call void @llvm.lifetime.start.p0(i64 4, ptr %7) #9
  store i32 -1, ptr %7, align 4, !tbaa !35
  %33 = load ptr, ptr %6, align 8, !tbaa !92
  %34 = getelementptr inbounds nuw %struct.anon.3, ptr %33, i32 0, i32 2
  %35 = load i8, ptr %34, align 1, !tbaa !37
  %36 = zext i8 %35 to i32
  %37 = icmp eq i32 %36, 30
  br i1 %37, label %38, label %51

38:                                               ; preds = %26
  %39 = load ptr, ptr %6, align 8, !tbaa !92
  %40 = getelementptr inbounds nuw %struct.anon.2, ptr %39, i32 0, i32 1
  %41 = load i16, ptr %40, align 2, !tbaa !37
  %42 = zext i16 %41 to i32
  store i32 %42, ptr %7, align 4, !tbaa !35
  %43 = load ptr, ptr %4, align 8, !tbaa !85
  %44 = getelementptr inbounds nuw %struct.GCtrace, ptr %43, i32 0, i32 7
  %45 = load ptr, ptr %44, align 8, !tbaa !91
  %46 = load ptr, ptr %6, align 8, !tbaa !92
  %47 = getelementptr inbounds nuw %struct.anon.2, ptr %46, i32 0, i32 0
  %48 = load i16, ptr %47, align 8, !tbaa !37
  %49 = zext i16 %48 to i64
  %50 = getelementptr inbounds nuw %union.IRIns, ptr %45, i64 %49
  store ptr %50, ptr %6, align 8, !tbaa !92
  br label %51

51:                                               ; preds = %38, %26
  %52 = load ptr, ptr %6, align 8, !tbaa !92
  %53 = getelementptr inbounds nuw %struct.anon.3, ptr %52, i32 0, i32 2
  %54 = load i8, ptr %53, align 1, !tbaa !37
  %55 = zext i8 %54 to i32
  %56 = icmp eq i32 %55, 29
  br i1 %56, label %57, label %95

57:                                               ; preds = %51
  br label %58

58:                                               ; preds = %57
  %59 = load ptr, ptr %3, align 8, !tbaa !4
  %60 = getelementptr inbounds nuw %struct.lua_State, ptr %59, i32 0, i32 5
  %61 = getelementptr inbounds nuw %struct.MRef, ptr %60, i32 0, i32 0
  %62 = load i64, ptr %61, align 8, !tbaa !17
  %63 = inttoptr i64 %62 to ptr
  %64 = getelementptr inbounds nuw %struct.global_State, ptr %63, i32 0, i32 26
  %65 = getelementptr inbounds nuw %struct.MRef, ptr %64, i32 0, i32 0
  %66 = load i64, ptr %65, align 8, !tbaa !93
  %67 = inttoptr i64 %66 to ptr
  %68 = icmp ne ptr %67, null
  br i1 %68, label %92, label %69

69:                                               ; preds = %58
  call void @llvm.lifetime.start.p0(i64 8, ptr %8) #9
  %70 = load ptr, ptr %3, align 8, !tbaa !4
  %71 = getelementptr inbounds nuw %struct.lua_State, ptr %70, i32 0, i32 8
  %72 = load ptr, ptr %71, align 8, !tbaa !16
  %73 = load ptr, ptr %3, align 8, !tbaa !4
  %74 = getelementptr inbounds nuw %struct.lua_State, ptr %73, i32 0, i32 10
  %75 = getelementptr inbounds nuw %struct.MRef, ptr %74, i32 0, i32 0
  %76 = load i64, ptr %75, align 8, !tbaa !94
  %77 = inttoptr i64 %76 to ptr
  %78 = ptrtoint ptr %72 to i64
  %79 = ptrtoint ptr %77 to i64
  %80 = sub i64 %78, %79
  store i64 %80, ptr %8, align 8, !tbaa !61
  %81 = load ptr, ptr %3, align 8, !tbaa !4
  %82 = call i32 @luaopen_ffi(ptr noundef %81)
  %83 = load ptr, ptr %3, align 8, !tbaa !4
  %84 = getelementptr inbounds nuw %struct.lua_State, ptr %83, i32 0, i32 10
  %85 = getelementptr inbounds nuw %struct.MRef, ptr %84, i32 0, i32 0
  %86 = load i64, ptr %85, align 8, !tbaa !94
  %87 = inttoptr i64 %86 to ptr
  %88 = load i64, ptr %8, align 8, !tbaa !61
  %89 = getelementptr inbounds i8, ptr %87, i64 %88
  %90 = load ptr, ptr %3, align 8, !tbaa !4
  %91 = getelementptr inbounds nuw %struct.lua_State, ptr %90, i32 0, i32 8
  store ptr %89, ptr %91, align 8, !tbaa !16
  call void @llvm.lifetime.end.p0(i64 8, ptr %8) #9
  br label %92

92:                                               ; preds = %69, %58
  br label %93

93:                                               ; preds = %92
  br label %94

94:                                               ; preds = %93
  br label %95

95:                                               ; preds = %94, %51
  %96 = load ptr, ptr %3, align 8, !tbaa !4
  %97 = load ptr, ptr %3, align 8, !tbaa !4
  %98 = getelementptr inbounds nuw %struct.lua_State, ptr %97, i32 0, i32 8
  %99 = load ptr, ptr %98, align 8, !tbaa !16
  %100 = getelementptr inbounds %union.TValue, ptr %99, i64 -2
  %101 = load ptr, ptr %6, align 8, !tbaa !92
  call void @lj_ir_kvalue(ptr noundef %96, ptr noundef %100, ptr noundef %101)
  %102 = load ptr, ptr %3, align 8, !tbaa !4
  %103 = getelementptr inbounds nuw %struct.lua_State, ptr %102, i32 0, i32 8
  %104 = load ptr, ptr %103, align 8, !tbaa !16
  %105 = getelementptr inbounds %union.TValue, ptr %104, i64 -1
  %106 = load ptr, ptr %6, align 8, !tbaa !92
  %107 = getelementptr inbounds nuw %struct.anon.3, ptr %106, i32 0, i32 1
  %108 = getelementptr inbounds nuw %struct.IRType1, ptr %107, i32 0, i32 0
  %109 = load i8, ptr %108, align 4, !tbaa !37
  %110 = zext i8 %109 to i32
  %111 = and i32 %110, 31
  call void @setintV(ptr noundef %105, i32 noundef %111)
  %112 = load i32, ptr %7, align 4, !tbaa !35
  %113 = icmp eq i32 %112, -1
  br i1 %113, label %114, label %115

114:                                              ; preds = %95
  store i32 2, ptr %2, align 4
  store i32 1, ptr %9, align 4
  br label %121

115:                                              ; preds = %95
  %116 = load ptr, ptr %3, align 8, !tbaa !4
  %117 = getelementptr inbounds nuw %struct.lua_State, ptr %116, i32 0, i32 8
  %118 = load ptr, ptr %117, align 8, !tbaa !16
  %119 = getelementptr inbounds nuw %union.TValue, ptr %118, i32 1
  store ptr %119, ptr %117, align 8, !tbaa !16
  %120 = load i32, ptr %7, align 4, !tbaa !35
  call void @setintV(ptr noundef %118, i32 noundef %120)
  store i32 3, ptr %2, align 4
  store i32 1, ptr %9, align 4
  br label %121

121:                                              ; preds = %115, %114
  call void @llvm.lifetime.end.p0(i64 4, ptr %7) #9
  call void @llvm.lifetime.end.p0(i64 8, ptr %6) #9
  br label %123

122:                                              ; preds = %23, %17, %1
  store i32 0, ptr %2, align 4
  store i32 1, ptr %9, align 4
  br label %123

123:                                              ; preds = %122, %121
  call void @llvm.lifetime.end.p0(i64 4, ptr %5) #9
  call void @llvm.lifetime.end.p0(i64 8, ptr %4) #9
  %124 = load i32, ptr %2, align 4
  ret i32 %124
}