; Function Attrs: nounwind uwtable
define internal range(i32 0, 4) i32 @lj_cf_jit_util_tracek(ptr noundef %0) #0 {
  %2 = tail call i32 @lj_lib_checkint(ptr noundef %0, i32 noundef 1) #8
  %3 = getelementptr inbounds nuw i8, ptr %0, i64 16
  %4 = load i64, ptr %3, align 8, !tbaa !4
  %5 = inttoptr i64 %4 to ptr
  %.not.i = icmp eq i32 %2, 0
  br i1 %.not.i, label %jit_checktrace.exit.thread, label %6

6:                                                ; preds = %1
  %7 = getelementptr inbounds nuw i8, ptr %5, i64 1132
  %8 = load i32, ptr %7, align 4, !tbaa !71
  %9 = icmp ult i32 %2, %8
  br i1 %9, label %jit_checktrace.exit, label %jit_checktrace.exit.thread

jit_checktrace.exit.thread:                       ; preds = %6, %1
  %10 = tail call i32 @lj_lib_checkint(ptr noundef nonnull %0, i32 noundef 2) #8
  br label %73

jit_checktrace.exit:                              ; preds = %6
  %11 = getelementptr inbounds nuw i8, ptr %5, i64 1120
  %12 = load ptr, ptr %11, align 8, !tbaa !72
  %13 = zext i32 %2 to i64
  %14 = getelementptr inbounds nuw %struct.GCRef, ptr %12, i64 %13
  %15 = load i64, ptr %14, align 8, !tbaa !70
  %16 = inttoptr i64 %15 to ptr
  %17 = tail call i32 @lj_lib_checkint(ptr noundef nonnull %0, i32 noundef 2) #8
  %18 = add i32 %17, 32768
  %.not = icmp eq i64 %15, 0
  br i1 %.not, label %73, label %19

19:                                               ; preds = %jit_checktrace.exit
  %20 = getelementptr inbounds nuw i8, ptr %16, i64 40
  %21 = load i32, ptr %20, align 8, !tbaa !74
  %22 = icmp uge i32 %18, %21
  %23 = icmp ugt i32 %17, -32769
  %or.cond = and i1 %23, %22
  br i1 %or.cond, label %24, label %73

24:                                               ; preds = %19
  %25 = getelementptr inbounds nuw i8, ptr %16, i64 32
  %26 = load ptr, ptr %25, align 8, !tbaa !79
  %27 = zext nneg i32 %18 to i64
  %28 = getelementptr inbounds nuw %union.IRIns, ptr %26, i64 %27
  %29 = getelementptr inbounds nuw i8, ptr %28, i64 5
  %30 = load i8, ptr %29, align 1, !tbaa !34
  %31 = icmp eq i8 %30, 30
  br i1 %31, label %32, label %39

32:                                               ; preds = %24
  %33 = getelementptr inbounds nuw i8, ptr %28, i64 2
  %34 = load i16, ptr %33, align 2, !tbaa !34
  %35 = zext i16 %34 to i32
  %36 = load i16, ptr %28, align 8, !tbaa !34
  %37 = zext i16 %36 to i64
  %38 = getelementptr inbounds nuw %union.IRIns, ptr %26, i64 %37
  %.phi.trans.insert = getelementptr inbounds nuw i8, ptr %38, i64 5
  %.pre = load i8, ptr %.phi.trans.insert, align 1, !tbaa !34
  br label %39

39:                                               ; preds = %32, %24
  %40 = phi i8 [ %.pre, %32 ], [ %30, %24 ]
  %.030 = phi ptr [ %38, %32 ], [ %28, %24 ]
  %.029 = phi i32 [ %35, %32 ], [ -1, %24 ]
  %41 = icmp eq i8 %40, 29
  br i1 %41, label %42, label %58

42:                                               ; preds = %39
  %43 = load i64, ptr %3, align 8, !tbaa !4
  %44 = inttoptr i64 %43 to ptr
  %45 = getelementptr inbounds nuw i8, ptr %44, i64 384
  %46 = load i64, ptr %45, align 8, !tbaa !80
  %.not33 = icmp eq i64 %46, 0
  br i1 %.not33, label %47, label %58

47:                                               ; preds = %42
  %48 = getelementptr inbounds nuw i8, ptr %0, i64 40
  %49 = load ptr, ptr %48, align 8, !tbaa !32
  %50 = getelementptr inbounds nuw i8, ptr %0, i64 56
  %51 = load i64, ptr %50, align 8, !tbaa !81
  %52 = ptrtoint ptr %49 to i64
  %53 = sub i64 %52, %51
  %54 = tail call i32 @luaopen_ffi(ptr noundef nonnull %0) #8
  %55 = load i64, ptr %50, align 8, !tbaa !81
  %56 = inttoptr i64 %55 to ptr
  %57 = getelementptr inbounds i8, ptr %56, i64 %53
  store ptr %57, ptr %48, align 8, !tbaa !32
  br label %58

58:                                               ; preds = %42, %47, %39
  %59 = getelementptr inbounds nuw i8, ptr %0, i64 40
  %60 = load ptr, ptr %59, align 8, !tbaa !32
  %61 = getelementptr inbounds i8, ptr %60, i64 -16
  tail call void @lj_ir_kvalue(ptr noundef nonnull %0, ptr noundef nonnull %61, ptr noundef nonnull %.030) #8
  %62 = load ptr, ptr %59, align 8, !tbaa !32
  %63 = getelementptr inbounds i8, ptr %62, i64 -8
  %64 = getelementptr inbounds nuw i8, ptr %.030, i64 4
  %65 = load i8, ptr %64, align 4, !tbaa !34
  %66 = and i8 %65, 31
  %67 = uitofp nneg i8 %66 to double
  store double %67, ptr %63, align 8, !tbaa !34
  %68 = icmp eq i32 %.029, -1
  br i1 %68, label %73, label %69

69:                                               ; preds = %58
  %70 = load ptr, ptr %59, align 8, !tbaa !32
  %71 = getelementptr inbounds nuw i8, ptr %70, i64 8
  store ptr %71, ptr %59, align 8, !tbaa !32
  %72 = uitofp nneg i32 %.029 to double
  store double %72, ptr %70, align 8, !tbaa !34
  br label %73

73:                                               ; preds = %jit_checktrace.exit.thread, %jit_checktrace.exit, %19, %69, %58
  %.1 = phi i32 [ 3, %69 ], [ 2, %58 ], [ 0, %19 ], [ 0, %jit_checktrace.exit ], [ 0, %jit_checktrace.exit.thread ]
  ret i32 %.1
}